target datalayout = "e-m:e-p270:32:32-p271:32:32-p272:64:64-i64:64-i128:128-f80:128-n8:16:32:64-S128"
target triple = "x86_64-pc-linux-gnu"

%struct.display_data = type { i64, i32, ptr, i8, i32, ptr, ptr, ptr, ptr, ptr, ptr, ptr, ptr }

@toggled = external global i8, align 1

; Function Attrs: nounwind uwtable
define internal void @_toggle_state_changed(ptr noundef %0, ptr noundef %1) #0 {
  %3 = alloca ptr, align 8
  %4 = alloca ptr, align 8
  store ptr %0, ptr %3, align 8
  store ptr %1, ptr %4, align 8
  %5 = load ptr, ptr %4, align 8
  %6 = getelementptr inbounds nuw %struct.display_data, ptr %5, i32 0, i32 3
  %7 = load i8, ptr %6, align 8, !range !23, !noundef !24
  %8 = trunc i8 %7 to i1
  br i1 %8, label %9, label %12

9:                                                ; preds = %2
  %10 = load ptr, ptr %4, align 8
  %11 = getelementptr inbounds nuw %struct.display_data, ptr %10, i32 0, i32 3
  store i8 0, ptr %11, align 8
  br label %15

12:                                               ; preds = %2
  %13 = load ptr, ptr %4, align 8
  %14 = getelementptr inbounds nuw %struct.display_data, ptr %13, i32 0, i32 3
  store i8 1, ptr %14, align 8
  br label %15

15:                                               ; preds = %12, %9
  store i8 1, ptr @toggled, align 1
  call void @refresh_main(ptr noundef null, ptr noundef null)
  ret void
}