; Function Attrs: nounwind uwtable
define internal void @_toggle_state_changed(ptr readnone captures(none) %0, ptr noundef captures(none) %1) #2 {
  %3 = getelementptr inbounds nuw i8, ptr %1, i64 24
  %4 = load i8, ptr %3, align 8, !range !21, !noundef !22
  %not. = xor i8 %4, 1
  store i8 %not., ptr %3, align 8
  store i8 1, ptr @toggled, align 1
  tail call void @refresh_main(ptr noundef null, ptr noundef null) #16
  ret void
}